; Function Attrs: mustprogress uwtable
define hidden void @_ZN4cvc58internal6theory4bags9BagsUtils20evaluateTableProjectENS0_12NodeTemplateILb0EEE(ptr dead_on_unwind noalias writable sret(%"class.cvc5::internal::NodeTemplate") align 8 %0, ptr noundef readonly captures(none) %1) local_unnamed_addr #3 align 2 personality ptr @__gxx_personality_v0 {
  %3 = alloca %"class.cvc5::internal::NodeTemplate", align 8
  %4 = alloca %"class.cvc5::internal::NodeTemplate", align 8
  %5 = alloca %"class.cvc5::internal::NodeTemplate.80", align 8
  call void @llvm.lifetime.start.p0(i64 8, ptr nonnull %3) #23
  %6 = load ptr, ptr %1, align 8, !tbaa !24
  store ptr %6, ptr %4, align 8, !tbaa !8
  %7 = load i64, ptr %6, align 8
  %8 = lshr i64 %7, 40
  %9 = trunc nuw nsw i64 %8 to i32
  %10 = and i32 %9, 1048575
  %11 = icmp samesign ult i32 %10, 1048574
  br i1 %11, label %12, label %17, !prof !11

12:                                               ; preds = %2
  %13 = add i64 %7, 1099511627776
  %14 = and i64 %13, 1152920405095219200
  %15 = and i64 %7, -1152920405095219201
  %16 = or disjoint i64 %14, %15
  store i64 %16, ptr %6, align 8
  br label %_ZN4cvc58internal12NodeTemplateILb1EEC2ERKNS1_ILb0EEE.exit

17:                                               ; preds = %2
  %18 = icmp eq i32 %10, 1048574
  br i1 %18, label %19, label %_ZN4cvc58internal12NodeTemplateILb1EEC2ERKNS1_ILb0EEE.exit, !prof !12

19:                                               ; preds = %17
  %20 = or i64 %7, 1152920405095219200
  store i64 %20, ptr %6, align 8
  tail call void @_ZN4cvc58internal4expr9NodeValue20markRefCountMaxedOutEv(ptr noundef nonnull align 8 dereferenceable(24) %6)
  br label %_ZN4cvc58internal12NodeTemplateILb1EEC2ERKNS1_ILb0EEE.exit

_ZN4cvc58internal12NodeTemplateILb1EEC2ERKNS1_ILb0EEE.exit: ; preds = %12, %17, %19
  invoke void @_ZN4cvc58internal6theory4bags12BagReduction21reduceProjectOperatorENS0_12NodeTemplateILb1EEE(ptr dead_on_unwind nonnull writable sret(%"class.cvc5::internal::NodeTemplate") align 8 %3, ptr noundef nonnull %4)
          to label %21 unwind label %50

21:                                               ; preds = %_ZN4cvc58internal12NodeTemplateILb1EEC2ERKNS1_ILb0EEE.exit
  %22 = load ptr, ptr %4, align 8, !tbaa !8
  %23 = load i64, ptr %22, align 8
  %24 = and i64 %23, 1152920405095219200
  %.not.i.i = icmp eq i64 %24, 1152920405095219200
  br i1 %.not.i.i, label %_ZN4cvc58internal12NodeTemplateILb1EED2Ev.exit, label %25, !prof !12

25:                                               ; preds = %21
  %26 = add i64 %23, 1152920405095219200
  %27 = and i64 %26, 1152920405095219200
  %28 = and i64 %23, -1152920405095219201
  %29 = or disjoint i64 %27, %28
  store i64 %29, ptr %22, align 8
  %30 = icmp eq i64 %27, 0
  br i1 %30, label %31, label %_ZN4cvc58internal12NodeTemplateILb1EED2Ev.exit, !prof !12

31:                                               ; preds = %25
  invoke void @_ZN4cvc58internal4expr9NodeValue15markForDeletionEv(ptr noundef nonnull align 8 dereferenceable(24) %22)
          to label %_ZN4cvc58internal12NodeTemplateILb1EED2Ev.exit unwind label %32

32:                                               ; preds = %31
  %33 = landingpad { ptr, i32 }
          catch ptr null
  %34 = extractvalue { ptr, i32 } %33, 0
  call void @__clang_call_terminate(ptr %34) #24
  unreachable

_ZN4cvc58internal12NodeTemplateILb1EED2Ev.exit:   ; preds = %21, %25, %31
  %35 = load ptr, ptr %3, align 8, !tbaa !8
  store ptr %35, ptr %5, align 8, !tbaa !24
  invoke void @_ZN4cvc58internal6theory4bags9BagsUtils14evaluateBagMapENS0_12NodeTemplateILb0EEE(ptr dead_on_unwind writable sret(%"class.cvc5::internal::NodeTemplate") align 8 %0, ptr noundef nonnull %5)
          to label %36 unwind label %52

36:                                               ; preds = %_ZN4cvc58internal12NodeTemplateILb1EED2Ev.exit
  %37 = load ptr, ptr %3, align 8, !tbaa !8
  %38 = load i64, ptr %37, align 8
  %39 = and i64 %38, 1152920405095219200
  %.not.i.i4 = icmp eq i64 %39, 1152920405095219200
  br i1 %.not.i.i4, label %_ZN4cvc58internal12NodeTemplateILb1EED2Ev.exit5, label %40, !prof !12

40:                                               ; preds = %36
  %41 = add i64 %38, 1152920405095219200
  %42 = and i64 %41, 1152920405095219200
  %43 = and i64 %38, -1152920405095219201
  %44 = or disjoint i64 %42, %43
  store i64 %44, ptr %37, align 8
  %45 = icmp eq i64 %42, 0
  br i1 %45, label %46, label %_ZN4cvc58internal12NodeTemplateILb1EED2Ev.exit5, !prof !12

46:                                               ; preds = %40
  invoke void @_ZN4cvc58internal4expr9NodeValue15markForDeletionEv(ptr noundef nonnull align 8 dereferenceable(24) %37)
          to label %_ZN4cvc58internal12NodeTemplateILb1EED2Ev.exit5 unwind label %47

47:                                               ; preds = %46
  %48 = landingpad { ptr, i32 }
          catch ptr null
  %49 = extractvalue { ptr, i32 } %48, 0
  call void @__clang_call_terminate(ptr %49) #24
  unreachable

_ZN4cvc58internal12NodeTemplateILb1EED2Ev.exit5:  ; preds = %36, %40, %46
  call void @llvm.lifetime.end.p0(i64 8, ptr nonnull %3) #23
  ret void

50:                                               ; preds = %_ZN4cvc58internal12NodeTemplateILb1EEC2ERKNS1_ILb0EEE.exit
  %51 = landingpad { ptr, i32 }
          cleanup
  br label %54

52:                                               ; preds = %_ZN4cvc58internal12NodeTemplateILb1EED2Ev.exit
  %53 = landingpad { ptr, i32 }
          cleanup
  br label %54

54:                                               ; preds = %52, %50
  %.sink = phi ptr [ %3, %52 ], [ %4, %50 ]
  %.pn = phi { ptr, i32 } [ %53, %52 ], [ %51, %50 ]
  call void @_ZN4cvc58internal12NodeTemplateILb1EED2Ev(ptr noundef nonnull align 8 dereferenceable(8) %.sink) #23
  call void @llvm.lifetime.end.p0(i64 8, ptr nonnull %3) #23
  resume { ptr, i32 } %.pn
}